; Function Attrs: mustprogress uwtable
define internal void @_ZL65InitDefaultsscc_info_FailureSet_conformance_2fconformance_2eprotov() #3 personality ptr @__gxx_personality_v0 {
entry:
  tail call void @_ZN6google8protobuf8internal13VerifyVersionEiiPKc(i32 noundef 3012004, i32 noundef 3012000, ptr noundef nonnull @.str.4)
  store ptr null, ptr getelementptr inbounds (%"class.conformance::FailureSetDefaultTypeInternal", ptr @_ZN11conformance29_FailureSet_default_instance_E, i64 0, i32 0, i32 0, i32 1, i64 0), align 8
  store ptr getelementptr inbounds ({ [22 x ptr] }, ptr @_ZTVN11conformance10FailureSetE, i64 0, i32 0, i64 2), ptr @_ZN11conformance29_FailureSet_default_instance_E, align 8
  tail call void @_ZN6google8protobuf16RepeatedPtrFieldINSt7__cxx1112basic_stringIcSt11char_traitsIcESaIcEEEEC1EPNS0_5ArenaE(ptr noundef nonnull align 8 dereferenceable(24) getelementptr inbounds (%"class.conformance::FailureSetDefaultTypeInternal", ptr @_ZN11conformance29_FailureSet_default_instance_E, i64 0, i32 0, i32 0, i32 1, i64 8), ptr noundef null)
  store i32 0, ptr getelementptr inbounds (%"class.conformance::FailureSetDefaultTypeInternal", ptr @_ZN11conformance29_FailureSet_default_instance_E, i64 0, i32 0, i32 0, i32 1, i64 32), align 8
  %0 = load atomic i32, ptr @scc_info_FailureSet_conformance_2fconformance_2eproto acquire, align 8
  %cmp.not.i.i.i.i = icmp eq i32 %0, 0
  br i1 %cmp.not.i.i.i.i, label %_ZN11conformance10FailureSetC2Ev.exit, label %if.then.i.i.i.i

if.then.i.i.i.i:                                  ; preds = %entry
  invoke void @_ZN6google8protobuf8internal11InitSCCImplEPNS1_11SCCInfoBaseE(ptr noundef nonnull @scc_info_FailureSet_conformance_2fconformance_2eproto)
          to label %_ZN11conformance10FailureSetC2Ev.exit unwind label %lpad2.i.i

lpad2.i.i:                                        ; preds = %if.then.i.i.i.i
  %1 = landingpad { ptr, i32 }
          cleanup
  tail call void @_ZN6google8protobuf16RepeatedPtrFieldINSt7__cxx1112basic_stringIcSt11char_traitsIcESaIcEEEED1Ev(ptr noundef nonnull align 8 dereferenceable(24) getelementptr inbounds (%"class.conformance::FailureSetDefaultTypeInternal", ptr @_ZN11conformance29_FailureSet_default_instance_E, i64 0, i32 0, i32 0, i32 1, i64 8)) #21
  resume { ptr, i32 } %1

_ZN11conformance10FailureSetC2Ev.exit:            ; preds = %entry, %if.then.i.i.i.i
  tail call void @_ZN6google8protobuf8internal13OnShutdownRunEPFvPKvES3_(ptr noundef nonnull @_ZN6google8protobuf8internal14DestroyMessageEPKv, ptr noundef nonnull @_ZN11conformance29_FailureSet_default_instance_E)
  ret void
}